target datalayout = "e-m:e-p270:32:32-p271:32:32-p272:64:64-i64:64-i128:128-f80:128-n8:16:32:64-S128"
target triple = "x86_64-pc-linux-gnu"

; Function Attrs: nounwind uwtable
define void @stbtt__v_prefilter(ptr noundef %0, i32 noundef %1, i32 noundef %2, i32 noundef %3, i32 noundef %4) #0 {
  %6 = alloca ptr, align 8
  %7 = alloca i32, align 4
  %8 = alloca i32, align 4
  %9 = alloca i32, align 4
  %10 = alloca i32, align 4
  %11 = alloca [8 x i8], align 1
  %12 = alloca i32, align 4
  %13 = alloca i32, align 4
  %14 = alloca i32, align 4
  %15 = alloca i32, align 4
  store ptr %0, ptr %6, align 8, !tbaa !25
  store i32 %1, ptr %7, align 4, !tbaa !14
  store i32 %2, ptr %8, align 4, !tbaa !14
  store i32 %3, ptr %9, align 4, !tbaa !14
  store i32 %4, ptr %10, align 4, !tbaa !14
  call void @llvm.lifetime.start.p0(i64 8, ptr %11) #8
  call void @llvm.lifetime.start.p0(i64 4, ptr %12) #8
  %16 = load i32, ptr %8, align 4, !tbaa !14
  %17 = load i32, ptr %10, align 4, !tbaa !14
  %18 = sub i32 %16, %17
  store i32 %18, ptr %12, align 4, !tbaa !14
  call void @llvm.lifetime.start.p0(i64 4, ptr %13) #8
  %19 = getelementptr inbounds [8 x i8], ptr %11, i64 0, i64 0
  call void @llvm.memset.p0.i64(ptr align 1 %19, i8 0, i64 8, i1 false)
  store i32 0, ptr %13, align 4, !tbaa !14
  br label %20

20:                                               ; preds = %305, %5
  %21 = load i32, ptr %13, align 4, !tbaa !14
  %22 = load i32, ptr %7, align 4, !tbaa !14
  %23 = icmp slt i32 %21, %22
  br i1 %23, label %24, label %308

24:                                               ; preds = %20
  call void @llvm.lifetime.start.p0(i64 4, ptr %14) #8
  call void @llvm.lifetime.start.p0(i64 4, ptr %15) #8
  %25 = getelementptr inbounds [8 x i8], ptr %11, i64 0, i64 0
  %26 = load i32, ptr %10, align 4, !tbaa !14
  %27 = zext i32 %26 to i64
  call void @llvm.memset.p0.i64(ptr align 1 %25, i8 0, i64 %27, i1 false)
  store i32 0, ptr %15, align 4, !tbaa !14
  %28 = load i32, ptr %10, align 4, !tbaa !14
  switch i32 %28, label %225 [
    i32 2, label %29
    i32 3, label %78
    i32 4, label %127
    i32 5, label %176
  ]

29:                                               ; preds = %24
  store i32 0, ptr %14, align 4, !tbaa !14
  br label %30

30:                                               ; preds = %74, %29
  %31 = load i32, ptr %14, align 4, !tbaa !14
  %32 = load i32, ptr %12, align 4, !tbaa !14
  %33 = icmp sle i32 %31, %32
  br i1 %33, label %34, label %77

34:                                               ; preds = %30
  %35 = load ptr, ptr %6, align 8, !tbaa !25
  %36 = load i32, ptr %14, align 4, !tbaa !14
  %37 = load i32, ptr %9, align 4, !tbaa !14
  %38 = mul nsw i32 %36, %37
  %39 = sext i32 %38 to i64
  %40 = getelementptr inbounds i8, ptr %35, i64 %39
  %41 = load i8, ptr %40, align 1, !tbaa !13
  %42 = zext i8 %41 to i32
  %43 = load i32, ptr %14, align 4, !tbaa !14
  %44 = and i32 %43, 7
  %45 = sext i32 %44 to i64
  %46 = getelementptr inbounds [8 x i8], ptr %11, i64 0, i64 %45
  %47 = load i8, ptr %46, align 1, !tbaa !13
  %48 = zext i8 %47 to i32
  %49 = sub nsw i32 %42, %48
  %50 = load i32, ptr %15, align 4, !tbaa !14
  %51 = add i32 %50, %49
  store i32 %51, ptr %15, align 4, !tbaa !14
  %52 = load ptr, ptr %6, align 8, !tbaa !25
  %53 = load i32, ptr %14, align 4, !tbaa !14
  %54 = load i32, ptr %9, align 4, !tbaa !14
  %55 = mul nsw i32 %53, %54
  %56 = sext i32 %55 to i64
  %57 = getelementptr inbounds i8, ptr %52, i64 %56
  %58 = load i8, ptr %57, align 1, !tbaa !13
  %59 = load i32, ptr %14, align 4, !tbaa !14
  %60 = load i32, ptr %10, align 4, !tbaa !14
  %61 = add i32 %59, %60
  %62 = and i32 %61, 7
  %63 = zext i32 %62 to i64
  %64 = getelementptr inbounds nuw [8 x i8], ptr %11, i64 0, i64 %63
  store i8 %58, ptr %64, align 1, !tbaa !13
  %65 = load i32, ptr %15, align 4, !tbaa !14
  %66 = udiv i32 %65, 2
  %67 = trunc i32 %66 to i8
  %68 = load ptr, ptr %6, align 8, !tbaa !25
  %69 = load i32, ptr %14, align 4, !tbaa !14
  %70 = load i32, ptr %9, align 4, !tbaa !14
  %71 = mul nsw i32 %69, %70
  %72 = sext i32 %71 to i64
  %73 = getelementptr inbounds i8, ptr %68, i64 %72
  store i8 %67, ptr %73, align 1, !tbaa !13
  br label %74

74:                                               ; preds = %34
  %75 = load i32, ptr %14, align 4, !tbaa !14
  %76 = add nsw i32 %75, 1
  store i32 %76, ptr %14, align 4, !tbaa !14
  br label %30, !llvm.loop !221

77:                                               ; preds = %30
  br label %275

78:                                               ; preds = %24
  store i32 0, ptr %14, align 4, !tbaa !14
  br label %79

79:                                               ; preds = %123, %78
  %80 = load i32, ptr %14, align 4, !tbaa !14
  %81 = load i32, ptr %12, align 4, !tbaa !14
  %82 = icmp sle i32 %80, %81
  br i1 %82, label %83, label %126

83:                                               ; preds = %79
  %84 = load ptr, ptr %6, align 8, !tbaa !25
  %85 = load i32, ptr %14, align 4, !tbaa !14
  %86 = load i32, ptr %9, align 4, !tbaa !14
  %87 = mul nsw i32 %85, %86
  %88 = sext i32 %87 to i64
  %89 = getelementptr inbounds i8, ptr %84, i64 %88
  %90 = load i8, ptr %89, align 1, !tbaa !13
  %91 = zext i8 %90 to i32
  %92 = load i32, ptr %14, align 4, !tbaa !14
  %93 = and i32 %92, 7
  %94 = sext i32 %93 to i64
  %95 = getelementptr inbounds [8 x i8], ptr %11, i64 0, i64 %94
  %96 = load i8, ptr %95, align 1, !tbaa !13
  %97 = zext i8 %96 to i32
  %98 = sub nsw i32 %91, %97
  %99 = load i32, ptr %15, align 4, !tbaa !14
  %100 = add i32 %99, %98
  store i32 %100, ptr %15, align 4, !tbaa !14
  %101 = load ptr, ptr %6, align 8, !tbaa !25
  %102 = load i32, ptr %14, align 4, !tbaa !14
  %103 = load i32, ptr %9, align 4, !tbaa !14
  %104 = mul nsw i32 %102, %103
  %105 = sext i32 %104 to i64
  %106 = getelementptr inbounds i8, ptr %101, i64 %105
  %107 = load i8, ptr %106, align 1, !tbaa !13
  %108 = load i32, ptr %14, align 4, !tbaa !14
  %109 = load i32, ptr %10, align 4, !tbaa !14
  %110 = add i32 %108, %109
  %111 = and i32 %110, 7
  %112 = zext i32 %111 to i64
  %113 = getelementptr inbounds nuw [8 x i8], ptr %11, i64 0, i64 %112
  store i8 %107, ptr %113, align 1, !tbaa !13
  %114 = load i32, ptr %15, align 4, !tbaa !14
  %115 = udiv i32 %114, 3
  %116 = trunc i32 %115 to i8
  %117 = load ptr, ptr %6, align 8, !tbaa !25
  %118 = load i32, ptr %14, align 4, !tbaa !14
  %119 = load i32, ptr %9, align 4, !tbaa !14
  %120 = mul nsw i32 %118, %119
  %121 = sext i32 %120 to i64
  %122 = getelementptr inbounds i8, ptr %117, i64 %121
  store i8 %116, ptr %122, align 1, !tbaa !13
  br label %123

123:                                              ; preds = %83
  %124 = load i32, ptr %14, align 4, !tbaa !14
  %125 = add nsw i32 %124, 1
  store i32 %125, ptr %14, align 4, !tbaa !14
  br label %79, !llvm.loop !222

126:                                              ; preds = %79
  br label %275

127:                                              ; preds = %24
  store i32 0, ptr %14, align 4, !tbaa !14
  br label %128

128:                                              ; preds = %172, %127
  %129 = load i32, ptr %14, align 4, !tbaa !14
  %130 = load i32, ptr %12, align 4, !tbaa !14
  %131 = icmp sle i32 %129, %130
  br i1 %131, label %132, label %175

132:                                              ; preds = %128
  %133 = load ptr, ptr %6, align 8, !tbaa !25
  %134 = load i32, ptr %14, align 4, !tbaa !14
  %135 = load i32, ptr %9, align 4, !tbaa !14
  %136 = mul nsw i32 %134, %135
  %137 = sext i32 %136 to i64
  %138 = getelementptr inbounds i8, ptr %133, i64 %137
  %139 = load i8, ptr %138, align 1, !tbaa !13
  %140 = zext i8 %139 to i32
  %141 = load i32, ptr %14, align 4, !tbaa !14
  %142 = and i32 %141, 7
  %143 = sext i32 %142 to i64
  %144 = getelementptr inbounds [8 x i8], ptr %11, i64 0, i64 %143
  %145 = load i8, ptr %144, align 1, !tbaa !13
  %146 = zext i8 %145 to i32
  %147 = sub nsw i32 %140, %146
  %148 = load i32, ptr %15, align 4, !tbaa !14
  %149 = add i32 %148, %147
  store i32 %149, ptr %15, align 4, !tbaa !14
  %150 = load ptr, ptr %6, align 8, !tbaa !25
  %151 = load i32, ptr %14, align 4, !tbaa !14
  %152 = load i32, ptr %9, align 4, !tbaa !14
  %153 = mul nsw i32 %151, %152
  %154 = sext i32 %153 to i64
  %155 = getelementptr inbounds i8, ptr %150, i64 %154
  %156 = load i8, ptr %155, align 1, !tbaa !13
  %157 = load i32, ptr %14, align 4, !tbaa !14
  %158 = load i32, ptr %10, align 4, !tbaa !14
  %159 = add i32 %157, %158
  %160 = and i32 %159, 7
  %161 = zext i32 %160 to i64
  %162 = getelementptr inbounds nuw [8 x i8], ptr %11, i64 0, i64 %161
  store i8 %156, ptr %162, align 1, !tbaa !13
  %163 = load i32, ptr %15, align 4, !tbaa !14
  %164 = udiv i32 %163, 4
  %165 = trunc i32 %164 to i8
  %166 = load ptr, ptr %6, align 8, !tbaa !25
  %167 = load i32, ptr %14, align 4, !tbaa !14
  %168 = load i32, ptr %9, align 4, !tbaa !14
  %169 = mul nsw i32 %167, %168
  %170 = sext i32 %169 to i64
  %171 = getelementptr inbounds i8, ptr %166, i64 %170
  store i8 %165, ptr %171, align 1, !tbaa !13
  br label %172

172:                                              ; preds = %132
  %173 = load i32, ptr %14, align 4, !tbaa !14
  %174 = add nsw i32 %173, 1
  store i32 %174, ptr %14, align 4, !tbaa !14
  br label %128, !llvm.loop !223

175:                                              ; preds = %128
  br label %275

176:                                              ; preds = %24
  store i32 0, ptr %14, align 4, !tbaa !14
  br label %177

177:                                              ; preds = %221, %176
  %178 = load i32, ptr %14, align 4, !tbaa !14
  %179 = load i32, ptr %12, align 4, !tbaa !14
  %180 = icmp sle i32 %178, %179
  br i1 %180, label %181, label %224

181:                                              ; preds = %177
  %182 = load ptr, ptr %6, align 8, !tbaa !25
  %183 = load i32, ptr %14, align 4, !tbaa !14
  %184 = load i32, ptr %9, align 4, !tbaa !14
  %185 = mul nsw i32 %183, %184
  %186 = sext i32 %185 to i64
  %187 = getelementptr inbounds i8, ptr %182, i64 %186
  %188 = load i8, ptr %187, align 1, !tbaa !13
  %189 = zext i8 %188 to i32
  %190 = load i32, ptr %14, align 4, !tbaa !14
  %191 = and i32 %190, 7
  %192 = sext i32 %191 to i64
  %193 = getelementptr inbounds [8 x i8], ptr %11, i64 0, i64 %192
  %194 = load i8, ptr %193, align 1, !tbaa !13
  %195 = zext i8 %194 to i32
  %196 = sub nsw i32 %189, %195
  %197 = load i32, ptr %15, align 4, !tbaa !14
  %198 = add i32 %197, %196
  store i32 %198, ptr %15, align 4, !tbaa !14
  %199 = load ptr, ptr %6, align 8, !tbaa !25
  %200 = load i32, ptr %14, align 4, !tbaa !14
  %201 = load i32, ptr %9, align 4, !tbaa !14
  %202 = mul nsw i32 %200, %201
  %203 = sext i32 %202 to i64
  %204 = getelementptr inbounds i8, ptr %199, i64 %203
  %205 = load i8, ptr %204, align 1, !tbaa !13
  %206 = load i32, ptr %14, align 4, !tbaa !14
  %207 = load i32, ptr %10, align 4, !tbaa !14
  %208 = add i32 %206, %207
  %209 = and i32 %208, 7
  %210 = zext i32 %209 to i64
  %211 = getelementptr inbounds nuw [8 x i8], ptr %11, i64 0, i64 %210
  store i8 %205, ptr %211, align 1, !tbaa !13
  %212 = load i32, ptr %15, align 4, !tbaa !14
  %213 = udiv i32 %212, 5
  %214 = trunc i32 %213 to i8
  %215 = load ptr, ptr %6, align 8, !tbaa !25
  %216 = load i32, ptr %14, align 4, !tbaa !14
  %217 = load i32, ptr %9, align 4, !tbaa !14
  %218 = mul nsw i32 %216, %217
  %219 = sext i32 %218 to i64
  %220 = getelementptr inbounds i8, ptr %215, i64 %219
  store i8 %214, ptr %220, align 1, !tbaa !13
  br label %221

221:                                              ; preds = %181
  %222 = load i32, ptr %14, align 4, !tbaa !14
  %223 = add nsw i32 %222, 1
  store i32 %223, ptr %14, align 4, !tbaa !14
  br label %177, !llvm.loop !224

224:                                              ; preds = %177
  br label %275

225:                                              ; preds = %24
  store i32 0, ptr %14, align 4, !tbaa !14
  br label %226

226:                                              ; preds = %271, %225
  %227 = load i32, ptr %14, align 4, !tbaa !14
  %228 = load i32, ptr %12, align 4, !tbaa !14
  %229 = icmp sle i32 %227, %228
  br i1 %229, label %230, label %274

230:                                              ; preds = %226
  %231 = load ptr, ptr %6, align 8, !tbaa !25
  %232 = load i32, ptr %14, align 4, !tbaa !14
  %233 = load i32, ptr %9, align 4, !tbaa !14
  %234 = mul nsw i32 %232, %233
  %235 = sext i32 %234 to i64
  %236 = getelementptr inbounds i8, ptr %231, i64 %235
  %237 = load i8, ptr %236, align 1, !tbaa !13
  %238 = zext i8 %237 to i32
  %239 = load i32, ptr %14, align 4, !tbaa !14
  %240 = and i32 %239, 7
  %241 = sext i32 %240 to i64
  %242 = getelementptr inbounds [8 x i8], ptr %11, i64 0, i64 %241
  %243 = load i8, ptr %242, align 1, !tbaa !13
  %244 = zext i8 %243 to i32
  %245 = sub nsw i32 %238, %244
  %246 = load i32, ptr %15, align 4, !tbaa !14
  %247 = add i32 %246, %245
  store i32 %247, ptr %15, align 4, !tbaa !14
  %248 = load ptr, ptr %6, align 8, !tbaa !25
  %249 = load i32, ptr %14, align 4, !tbaa !14
  %250 = load i32, ptr %9, align 4, !tbaa !14
  %251 = mul nsw i32 %249, %250
  %252 = sext i32 %251 to i64
  %253 = getelementptr inbounds i8, ptr %248, i64 %252
  %254 = load i8, ptr %253, align 1, !tbaa !13
  %255 = load i32, ptr %14, align 4, !tbaa !14
  %256 = load i32, ptr %10, align 4, !tbaa !14
  %257 = add i32 %255, %256
  %258 = and i32 %257, 7
  %259 = zext i32 %258 to i64
  %260 = getelementptr inbounds nuw [8 x i8], ptr %11, i64 0, i64 %259
  store i8 %254, ptr %260, align 1, !tbaa !13
  %261 = load i32, ptr %15, align 4, !tbaa !14
  %262 = load i32, ptr %10, align 4, !tbaa !14
  %263 = udiv i32 %261, %262
  %264 = trunc i32 %263 to i8
  %265 = load ptr, ptr %6, align 8, !tbaa !25
  %266 = load i32, ptr %14, align 4, !tbaa !14
  %267 = load i32, ptr %9, align 4, !tbaa !14
  %268 = mul nsw i32 %266, %267
  %269 = sext i32 %268 to i64
  %270 = getelementptr inbounds i8, ptr %265, i64 %269
  store i8 %264, ptr %270, align 1, !tbaa !13
  br label %271

271:                                              ; preds = %230
  %272 = load i32, ptr %14, align 4, !tbaa !14
  %273 = add nsw i32 %272, 1
  store i32 %273, ptr %14, align 4, !tbaa !14
  br label %226, !llvm.loop !225

274:                                              ; preds = %226
  br label %275

275:                                              ; preds = %274, %224, %175, %126, %77
  br label %276

276:                                              ; preds = %299, %275
  %277 = load i32, ptr %14, align 4, !tbaa !14
  %278 = load i32, ptr %8, align 4, !tbaa !14
  %279 = icmp slt i32 %277, %278
  br i1 %279, label %280, label %302

280:                                              ; preds = %276
  %281 = load i32, ptr %14, align 4, !tbaa !14
  %282 = and i32 %281, 7
  %283 = sext i32 %282 to i64
  %284 = getelementptr inbounds [8 x i8], ptr %11, i64 0, i64 %283
  %285 = load i8, ptr %284, align 1, !tbaa !13
  %286 = zext i8 %285 to i32
  %287 = load i32, ptr %15, align 4, !tbaa !14
  %288 = sub i32 %287, %286
  store i32 %288, ptr %15, align 4, !tbaa !14
  %289 = load i32, ptr %15, align 4, !tbaa !14
  %290 = load i32, ptr %10, align 4, !tbaa !14
  %291 = udiv i32 %289, %290
  %292 = trunc i32 %291 to i8
  %293 = load ptr, ptr %6, align 8, !tbaa !25
  %294 = load i32, ptr %14, align 4, !tbaa !14
  %295 = load i32, ptr %9, align 4, !tbaa !14
  %296 = mul nsw i32 %294, %295
  %297 = sext i32 %296 to i64
  %298 = getelementptr inbounds i8, ptr %293, i64 %297
  store i8 %292, ptr %298, align 1, !tbaa !13
  br label %299

299:                                              ; preds = %280
  %300 = load i32, ptr %14, align 4, !tbaa !14
  %301 = add nsw i32 %300, 1
  store i32 %301, ptr %14, align 4, !tbaa !14
  br label %276, !llvm.loop !226

302:                                              ; preds = %276
  %303 = load ptr, ptr %6, align 8, !tbaa !25
  %304 = getelementptr inbounds i8, ptr %303, i64 1
  store ptr %304, ptr %6, align 8, !tbaa !25
  call void @llvm.lifetime.end.p0(i64 4, ptr %15) #8
  call void @llvm.lifetime.end.p0(i64 4, ptr %14) #8
  br label %305

305:                                              ; preds = %302
  %306 = load i32, ptr %13, align 4, !tbaa !14
  %307 = add nsw i32 %306, 1
  store i32 %307, ptr %13, align 4, !tbaa !14
  br label %20, !llvm.loop !227

308:                                              ; preds = %20
  call void @llvm.lifetime.end.p0(i64 4, ptr %13) #8
  call void @llvm.lifetime.end.p0(i64 4, ptr %12) #8
  call void @llvm.lifetime.end.p0(i64 8, ptr %11) #8
  ret void
}