; Function Attrs: nofree norecurse nosync nounwind memory(argmem: readwrite) uwtable
define void @stbtt__v_prefilter(ptr noundef captures(none) %0, i32 noundef %1, i32 noundef %2, i32 noundef %3, i32 noundef %4) local_unnamed_addr #22 {
  %6 = alloca [8 x i8], align 8
  call void @llvm.lifetime.start.p0(i64 8, ptr nonnull %6) #32
  store i64 0, ptr %6, align 8
  %7 = icmp sgt i32 %1, 0
  br i1 %7, label %.lr.ph163, label %._crit_edge164

.lr.ph163:                                        ; preds = %5
  %8 = sub i32 %2, %4
  %9 = zext i32 %4 to i64
  %.not128 = icmp slt i32 %8, 0
  %10 = sext i32 %3 to i64
  %11 = add i32 %2, 1
  %12 = sub i32 %11, %4
  %wide.trip.count = zext i32 %12 to i64
  %wide.trip.count182 = zext i32 %12 to i64
  %wide.trip.count187 = zext i32 %12 to i64
  %wide.trip.count192 = zext i32 %12 to i64
  %wide.trip.count197 = zext i32 %12 to i64
  %wide.trip.count202 = sext i32 %2 to i64
  br label %13

13:                                               ; preds = %.lr.ph163, %._crit_edge
  %.0110161 = phi i32 [ 0, %.lr.ph163 ], [ %103, %._crit_edge ]
  %.0111159 = phi ptr [ %0, %.lr.ph163 ], [ %102, %._crit_edge ]
  call void @llvm.memset.p0.i64(ptr nonnull align 8 %6, i8 0, i64 %9, i1 false)
  switch i32 %4, label %.preheader [
    i32 2, label %.preheader120
    i32 3, label %.preheader122
    i32 4, label %.preheader124
    i32 5, label %.preheader126
  ]

.preheader126:                                    ; preds = %13
  br i1 %.not128, label %.loopexit, label %.lr.ph

.preheader124:                                    ; preds = %13
  br i1 %.not128, label %.loopexit, label %.lr.ph135

.preheader122:                                    ; preds = %13
  br i1 %.not128, label %.loopexit, label %.lr.ph141

.preheader120:                                    ; preds = %13
  br i1 %.not128, label %.loopexit, label %.lr.ph147

.preheader:                                       ; preds = %13
  br i1 %.not128, label %.loopexit, label %.lr.ph153

.lr.ph147:                                        ; preds = %.preheader120, %.lr.ph147
  %indvars.iv189 = phi i64 [ %indvars.iv.next190, %.lr.ph147 ], [ 0, %.preheader120 ]
  %.0146 = phi i32 [ %23, %.lr.ph147 ], [ 0, %.preheader120 ]
  %14 = mul nsw i64 %indvars.iv189, %10
  %15 = getelementptr inbounds i8, ptr %.0111159, i64 %14
  %16 = load i8, ptr %15, align 1, !tbaa !12
  %17 = zext i8 %16 to i32
  %18 = and i64 %indvars.iv189, 7
  %19 = getelementptr inbounds nuw [8 x i8], ptr %6, i64 0, i64 %18
  %20 = load i8, ptr %19, align 1, !tbaa !12
  %21 = zext i8 %20 to i32
  %22 = sub nsw i32 %17, %21
  %23 = add i32 %22, %.0146
  %24 = add nuw i64 %indvars.iv189, 2
  %25 = and i64 %24, 7
  %26 = getelementptr inbounds nuw [8 x i8], ptr %6, i64 0, i64 %25
  store i8 %16, ptr %26, align 1, !tbaa !12
  %27 = lshr i32 %23, 1
  %28 = trunc i32 %27 to i8
  store i8 %28, ptr %15, align 1, !tbaa !12
  %indvars.iv.next190 = add nuw nsw i64 %indvars.iv189, 1
  %exitcond193.not = icmp eq i64 %indvars.iv.next190, %wide.trip.count192
  br i1 %exitcond193.not, label %.loopexit, label %.lr.ph147, !llvm.loop !196

.lr.ph141:                                        ; preds = %.preheader122, %.lr.ph141
  %indvars.iv184 = phi i64 [ %indvars.iv.next185, %.lr.ph141 ], [ 0, %.preheader122 ]
  %.2140 = phi i32 [ %38, %.lr.ph141 ], [ 0, %.preheader122 ]
  %29 = mul nsw i64 %indvars.iv184, %10
  %30 = getelementptr inbounds i8, ptr %.0111159, i64 %29
  %31 = load i8, ptr %30, align 1, !tbaa !12
  %32 = zext i8 %31 to i32
  %33 = and i64 %indvars.iv184, 7
  %34 = getelementptr inbounds nuw [8 x i8], ptr %6, i64 0, i64 %33
  %35 = load i8, ptr %34, align 1, !tbaa !12
  %36 = zext i8 %35 to i32
  %37 = sub nsw i32 %32, %36
  %38 = add i32 %37, %.2140
  %39 = add nuw i64 %indvars.iv184, 3
  %40 = and i64 %39, 7
  %41 = getelementptr inbounds nuw [8 x i8], ptr %6, i64 0, i64 %40
  store i8 %31, ptr %41, align 1, !tbaa !12
  %42 = udiv i32 %38, 3
  %43 = trunc i32 %42 to i8
  store i8 %43, ptr %30, align 1, !tbaa !12
  %indvars.iv.next185 = add nuw nsw i64 %indvars.iv184, 1
  %exitcond188.not = icmp eq i64 %indvars.iv.next185, %wide.trip.count187
  br i1 %exitcond188.not, label %.loopexit, label %.lr.ph141, !llvm.loop !197

.lr.ph135:                                        ; preds = %.preheader124, %.lr.ph135
  %indvars.iv179 = phi i64 [ %indvars.iv.next180, %.lr.ph135 ], [ 0, %.preheader124 ]
  %.3134 = phi i32 [ %54, %.lr.ph135 ], [ 0, %.preheader124 ]
  %44 = mul nsw i64 %indvars.iv179, %10
  %45 = getelementptr inbounds i8, ptr %.0111159, i64 %44
  %46 = load i8, ptr %45, align 1, !tbaa !12
  %47 = zext i8 %46 to i32
  %48 = and i64 %indvars.iv179, 7
  %49 = and i64 %indvars.iv179, 7
  %50 = getelementptr inbounds nuw [8 x i8], ptr %6, i64 0, i64 %49
  %51 = load i8, ptr %50, align 1, !tbaa !12
  %52 = zext i8 %51 to i32
  %53 = sub nsw i32 %47, %52
  %54 = add i32 %53, %.3134
  %55 = xor i64 %48, 4
  %56 = getelementptr inbounds nuw [8 x i8], ptr %6, i64 0, i64 %55
  store i8 %46, ptr %56, align 1, !tbaa !12
  %57 = lshr i32 %54, 2
  %58 = trunc i32 %57 to i8
  store i8 %58, ptr %45, align 1, !tbaa !12
  %indvars.iv.next180 = add nuw nsw i64 %indvars.iv179, 1
  %exitcond183.not = icmp eq i64 %indvars.iv.next180, %wide.trip.count182
  br i1 %exitcond183.not, label %.loopexit, label %.lr.ph135, !llvm.loop !198

.lr.ph:                                           ; preds = %.preheader126, %.lr.ph
  %indvars.iv = phi i64 [ %indvars.iv.next, %.lr.ph ], [ 0, %.preheader126 ]
  %.4130 = phi i32 [ %68, %.lr.ph ], [ 0, %.preheader126 ]
  %59 = mul nsw i64 %indvars.iv, %10
  %60 = getelementptr inbounds i8, ptr %.0111159, i64 %59
  %61 = load i8, ptr %60, align 1, !tbaa !12
  %62 = zext i8 %61 to i32
  %63 = and i64 %indvars.iv, 7
  %64 = getelementptr inbounds nuw [8 x i8], ptr %6, i64 0, i64 %63
  %65 = load i8, ptr %64, align 1, !tbaa !12
  %66 = zext i8 %65 to i32
  %67 = sub nsw i32 %62, %66
  %68 = add i32 %67, %.4130
  %69 = add nuw i64 %indvars.iv, 5
  %70 = and i64 %69, 7
  %71 = getelementptr inbounds nuw [8 x i8], ptr %6, i64 0, i64 %70
  store i8 %61, ptr %71, align 1, !tbaa !12
  %72 = udiv i32 %68, 5
  %73 = trunc i32 %72 to i8
  store i8 %73, ptr %60, align 1, !tbaa !12
  %indvars.iv.next = add nuw nsw i64 %indvars.iv, 1
  %exitcond.not = icmp eq i64 %indvars.iv.next, %wide.trip.count
  br i1 %exitcond.not, label %.loopexit, label %.lr.ph, !llvm.loop !199

.lr.ph153:                                        ; preds = %.preheader, %.lr.ph153
  %indvars.iv194 = phi i64 [ %indvars.iv.next195, %.lr.ph153 ], [ 0, %.preheader ]
  %.5152 = phi i32 [ %84, %.lr.ph153 ], [ 0, %.preheader ]
  %74 = mul nsw i64 %indvars.iv194, %10
  %75 = getelementptr inbounds i8, ptr %.0111159, i64 %74
  %76 = load i8, ptr %75, align 1, !tbaa !12
  %77 = zext i8 %76 to i32
  %78 = trunc nuw nsw i64 %indvars.iv194 to i32
  %79 = and i64 %indvars.iv194, 7
  %80 = getelementptr inbounds nuw [8 x i8], ptr %6, i64 0, i64 %79
  %81 = load i8, ptr %80, align 1, !tbaa !12
  %82 = zext i8 %81 to i32
  %83 = sub nsw i32 %77, %82
  %84 = add i32 %83, %.5152
  %85 = add i32 %4, %78
  %86 = and i32 %85, 7
  %87 = zext nneg i32 %86 to i64
  %88 = getelementptr inbounds nuw [8 x i8], ptr %6, i64 0, i64 %87
  store i8 %76, ptr %88, align 1, !tbaa !12
  %89 = udiv i32 %84, %4
  %90 = trunc i32 %89 to i8
  store i8 %90, ptr %75, align 1, !tbaa !12
  %indvars.iv.next195 = add nuw nsw i64 %indvars.iv194, 1
  %exitcond198.not = icmp eq i64 %indvars.iv.next195, %wide.trip.count197
  br i1 %exitcond198.not, label %.loopexit, label %.lr.ph153, !llvm.loop !200

.loopexit:                                        ; preds = %.lr.ph, %.lr.ph135, %.lr.ph141, %.lr.ph147, %.lr.ph153, %.preheader126, %.preheader124, %.preheader122, %.preheader120, %.preheader
  %.1104 = phi i32 [ 0, %.preheader ], [ 0, %.preheader120 ], [ 0, %.preheader122 ], [ 0, %.preheader124 ], [ 0, %.preheader126 ], [ %12, %.lr.ph153 ], [ %12, %.lr.ph147 ], [ %12, %.lr.ph141 ], [ %12, %.lr.ph135 ], [ %12, %.lr.ph ]
  %.1 = phi i32 [ 0, %.preheader ], [ 0, %.preheader120 ], [ 0, %.preheader122 ], [ 0, %.preheader124 ], [ 0, %.preheader126 ], [ %84, %.lr.ph153 ], [ %23, %.lr.ph147 ], [ %38, %.lr.ph141 ], [ %54, %.lr.ph135 ], [ %68, %.lr.ph ]
  %91 = icmp slt i32 %.1104, %2
  br i1 %91, label %.lr.ph158.preheader, label %._crit_edge

.lr.ph158.preheader:                              ; preds = %.loopexit
  %92 = sext i32 %.1104 to i64
  br label %.lr.ph158

.lr.ph158:                                        ; preds = %.lr.ph158.preheader, %.lr.ph158
  %indvars.iv199 = phi i64 [ %92, %.lr.ph158.preheader ], [ %indvars.iv.next200, %.lr.ph158 ]
  %.6157 = phi i32 [ %.1, %.lr.ph158.preheader ], [ %97, %.lr.ph158 ]
  %93 = and i64 %indvars.iv199, 7
  %94 = getelementptr inbounds nuw [8 x i8], ptr %6, i64 0, i64 %93
  %95 = load i8, ptr %94, align 1, !tbaa !12
  %96 = zext i8 %95 to i32
  %97 = sub i32 %.6157, %96
  %98 = udiv i32 %97, %4
  %99 = trunc i32 %98 to i8
  %100 = mul nsw i64 %indvars.iv199, %10
  %101 = getelementptr inbounds i8, ptr %.0111159, i64 %100
  store i8 %99, ptr %101, align 1, !tbaa !12
  %indvars.iv.next200 = add nsw i64 %indvars.iv199, 1
  %exitcond203.not = icmp eq i64 %indvars.iv.next200, %wide.trip.count202
  br i1 %exitcond203.not, label %._crit_edge, label %.lr.ph158, !llvm.loop !201

._crit_edge:                                      ; preds = %.lr.ph158, %.loopexit
  %102 = getelementptr inbounds nuw i8, ptr %.0111159, i64 1
  %103 = add nuw nsw i32 %.0110161, 1
  %exitcond204.not = icmp eq i32 %103, %1
  br i1 %exitcond204.not, label %._crit_edge164, label %13, !llvm.loop !202

._crit_edge164:                                   ; preds = %._crit_edge, %5
  call void @llvm.lifetime.end.p0(i64 8, ptr nonnull %6) #32
  ret void
}